target datalayout = "e-m:e-p270:32:32-p271:32:32-p272:64:64-i64:64-i128:128-f80:128-n8:16:32:64-S128"
target triple = "x86_64-unknown-linux-gnu"

%"class.icu_75::numparse::impl::AffixPatternMatcherBuilder" = type { %"class.icu_75::number::impl::TokenConsumer", %"class.icu_75::numparse::impl::MutableMatcherCollection", %"class.icu_75::MaybeStackArray.0", i32, i32, ptr, ptr, ptr }
%"class.icu_75::number::impl::TokenConsumer" = type { ptr }
%"class.icu_75::numparse::impl::MutableMatcherCollection" = type { ptr }
%"class.icu_75::MaybeStackArray.0" = type { ptr, i32, i8, [3 x ptr] }

; Function Attrs: mustprogress uwtable
define linkonce_odr void @_ZN6icu_7515MaybeStackArrayIPKNS_8numparse4impl18NumberParseMatcherELi3EE12releaseArrayEv(ptr noundef nonnull align 8 dereferenceable(40) %this) #1 comdat align 2 {
entry:
  %this.addr = alloca ptr, align 8
  store ptr %this, ptr %this.addr, align 8
  %this1 = load ptr, ptr %this.addr, align 8
  %needToRelease = getelementptr inbounds %"class.icu_75::MaybeStackArray.0", ptr %this1, i32 0, i32 2
  %0 = load i8, ptr %needToRelease, align 4
  %tobool = icmp ne i8 %0, 0
  br i1 %tobool, label %if.then, label %if.end

if.then:                                          ; preds = %entry
  %ptr = getelementptr inbounds %"class.icu_75::MaybeStackArray.0", ptr %this1, i32 0, i32 0
  %1 = load ptr, ptr %ptr, align 8
  call void @uprv_free_75(ptr noundef %1)
  br label %if.end

if.end:                                           ; preds = %if.then, %entry
  ret void
}

; Function Attrs: mustprogress nounwind uwtable
define linkonce_odr noundef nonnull align 8 dereferenceable(8) ptr @_ZN6icu_7515MaybeStackArrayIPKNS_8numparse4impl18NumberParseMatcherELi3EEixEl(ptr noundef nonnull align 8 dereferenceable(40) %this, i64 noundef %i) #0 comdat align 2 {
entry:
  %this.addr = alloca ptr, align 8
  %i.addr = alloca i64, align 8
  store ptr %this, ptr %this.addr, align 8
  store i64 %i, ptr %i.addr, align 8
  %this1 = load ptr, ptr %this.addr, align 8
  %ptr = getelementptr inbounds %"class.icu_75::MaybeStackArray.0", ptr %this1, i32 0, i32 0
  %0 = load ptr, ptr %ptr, align 8
  %1 = load i64, ptr %i.addr, align 8
  %arrayidx = getelementptr inbounds ptr, ptr %0, i64 %1
  ret ptr %arrayidx
}

; Function Attrs: mustprogress uwtable
define linkonce_odr noundef ptr @_ZN6icu_7515MaybeStackArrayIPKNS_8numparse4impl18NumberParseMatcherELi3EE6resizeEii(ptr noundef nonnull align 8 dereferenceable(40) %this, i32 noundef %newCapacity, i32 noundef %length) #1 comdat align 2 {
entry:
  %retval = alloca ptr, align 8
  %this.addr = alloca ptr, align 8
  %newCapacity.addr = alloca i32, align 4
  %length.addr = alloca i32, align 4
  %p = alloca ptr, align 8
  store ptr %this, ptr %this.addr, align 8
  store i32 %newCapacity, ptr %newCapacity.addr, align 4
  store i32 %length, ptr %length.addr, align 4
  %this1 = load ptr, ptr %this.addr, align 8
  %0 = load i32, ptr %newCapacity.addr, align 4
  %cmp = icmp sgt i32 %0, 0
  br i1 %cmp, label %if.then, label %if.else

if.then:                                          ; preds = %entry
  %1 = load i32, ptr %newCapacity.addr, align 4
  %conv = sext i32 %1 to i64
  %mul = mul i64 %conv, 8
  %call = call noalias ptr @uprv_malloc_75(i64 noundef %mul) #14
  store ptr %call, ptr %p, align 8
  %2 = load ptr, ptr %p, align 8
  %cmp2 = icmp ne ptr %2, null
  br i1 %cmp2, label %if.then3, label %if.end17

if.then3:                                         ; preds = %if.then
  %3 = load i32, ptr %length.addr, align 4
  %cmp4 = icmp sgt i32 %3, 0
  br i1 %cmp4, label %if.then5, label %if.end14

if.then5:                                         ; preds = %if.then3
  %4 = load i32, ptr %length.addr, align 4
  %capacity = getelementptr inbounds %"class.icu_75::MaybeStackArray.0", ptr %this1, i32 0, i32 1
  %5 = load i32, ptr %capacity, align 8
  %cmp6 = icmp sgt i32 %4, %5
  br i1 %cmp6, label %if.then7, label %if.end

if.then7:                                         ; preds = %if.then5
  %capacity8 = getelementptr inbounds %"class.icu_75::MaybeStackArray.0", ptr %this1, i32 0, i32 1
  %6 = load i32, ptr %capacity8, align 8
  store i32 %6, ptr %length.addr, align 4
  br label %if.end

if.end:                                           ; preds = %if.then7, %if.then5
  %7 = load i32, ptr %length.addr, align 4
  %8 = load i32, ptr %newCapacity.addr, align 4
  %cmp9 = icmp sgt i32 %7, %8
  br i1 %cmp9, label %if.then10, label %if.end11

if.then10:                                        ; preds = %if.end
  %9 = load i32, ptr %newCapacity.addr, align 4
  store i32 %9, ptr %length.addr, align 4
  br label %if.end11

if.end11:                                         ; preds = %if.then10, %if.end
  br label %do.body

do.body:                                          ; preds = %if.end11
  %10 = load ptr, ptr %p, align 8
  %ptr = getelementptr inbounds %"class.icu_75::MaybeStackArray.0", ptr %this1, i32 0, i32 0
  %11 = load ptr, ptr %ptr, align 8
  %12 = load i32, ptr %length.addr, align 4
  %conv12 = sext i32 %12 to i64
  %mul13 = mul i64 %conv12, 8
  call void @llvm.memcpy.p0.p0.i64(ptr align 8 %10, ptr align 8 %11, i64 %mul13, i1 false)
  br label %do.end

do.end:                                           ; preds = %do.body
  br label %if.end14

if.end14:                                         ; preds = %do.end, %if.then3
  call void @_ZN6icu_7515MaybeStackArrayIPKNS_8numparse4impl18NumberParseMatcherELi3EE12releaseArrayEv(ptr noundef nonnull align 8 dereferenceable(40) %this1)
  %13 = load ptr, ptr %p, align 8
  %ptr15 = getelementptr inbounds %"class.icu_75::MaybeStackArray.0", ptr %this1, i32 0, i32 0
  store ptr %13, ptr %ptr15, align 8
  %14 = load i32, ptr %newCapacity.addr, align 4
  %capacity16 = getelementptr inbounds %"class.icu_75::MaybeStackArray.0", ptr %this1, i32 0, i32 1
  store i32 %14, ptr %capacity16, align 8
  %needToRelease = getelementptr inbounds %"class.icu_75::MaybeStackArray.0", ptr %this1, i32 0, i32 2
  store i8 1, ptr %needToRelease, align 4
  br label %if.end17

if.end17:                                         ; preds = %if.end14, %if.then
  %15 = load ptr, ptr %p, align 8
  store ptr %15, ptr %retval, align 8
  br label %return

if.else:                                          ; preds = %entry
  store ptr null, ptr %retval, align 8
  br label %return

return:                                           ; preds = %if.else, %if.end17
  %16 = load ptr, ptr %retval, align 8
  ret ptr %16
}

; Function Attrs: mustprogress nounwind uwtable
define linkonce_odr noundef i32 @_ZNK6icu_7515MaybeStackArrayIPKNS_8numparse4impl18NumberParseMatcherELi3EE11getCapacityEv(ptr noundef nonnull align 8 dereferenceable(40) %this) #0 comdat align 2 {
entry:
  %this.addr = alloca ptr, align 8
  store ptr %this, ptr %this.addr, align 8
  %this1 = load ptr, ptr %this.addr, align 8
  %capacity = getelementptr inbounds %"class.icu_75::MaybeStackArray.0", ptr %this1, i32 0, i32 1
  %0 = load i32, ptr %capacity, align 8
  ret i32 %0
}

; Function Attrs: mustprogress uwtable
define void @_ZN6icu_758numparse4impl26AffixPatternMatcherBuilder10addMatcherERNS1_18NumberParseMatcherE(ptr noundef nonnull align 8 dereferenceable(88) %this, ptr noundef nonnull align 8 dereferenceable(8) %matcher) unnamed_addr #1 align 2 {
entry:
  %this.addr = alloca ptr, align 8
  %matcher.addr = alloca ptr, align 8
  store ptr %this, ptr %this.addr, align 8
  store ptr %matcher, ptr %matcher.addr, align 8
  %this1 = load ptr, ptr %this.addr, align 8
  %fMatchersLen = getelementptr inbounds %"class.icu_75::numparse::impl::AffixPatternMatcherBuilder", ptr %this1, i32 0, i32 3
  %0 = load i32, ptr %fMatchersLen, align 8
  %fMatchers = getelementptr inbounds %"class.icu_75::numparse::impl::AffixPatternMatcherBuilder", ptr %this1, i32 0, i32 2
  %call = call noundef i32 @_ZNK6icu_7515MaybeStackArrayIPKNS_8numparse4impl18NumberParseMatcherELi3EE11getCapacityEv(ptr noundef nonnull align 8 dereferenceable(40) %fMatchers)
  %cmp = icmp sge i32 %0, %call
  br i1 %cmp, label %if.then, label %if.end

if.then:                                          ; preds = %entry
  %fMatchers2 = getelementptr inbounds %"class.icu_75::numparse::impl::AffixPatternMatcherBuilder", ptr %this1, i32 0, i32 2
  %fMatchersLen3 = getelementptr inbounds %"class.icu_75::numparse::impl::AffixPatternMatcherBuilder", ptr %this1, i32 0, i32 3
  %1 = load i32, ptr %fMatchersLen3, align 8
  %mul = mul nsw i32 %1, 2
  %fMatchersLen4 = getelementptr inbounds %"class.icu_75::numparse::impl::AffixPatternMatcherBuilder", ptr %this1, i32 0, i32 3
  %2 = load i32, ptr %fMatchersLen4, align 8
  %call5 = call noundef ptr @_ZN6icu_7515MaybeStackArrayIPKNS_8numparse4impl18NumberParseMatcherELi3EE6resizeEii(ptr noundef nonnull align 8 dereferenceable(40) %fMatchers2, i32 noundef %mul, i32 noundef %2)
  br label %if.end

if.end:                                           ; preds = %if.then, %entry
  %3 = load ptr, ptr %matcher.addr, align 8
  %fMatchers6 = getelementptr inbounds %"class.icu_75::numparse::impl::AffixPatternMatcherBuilder", ptr %this1, i32 0, i32 2
  %fMatchersLen7 = getelementptr inbounds %"class.icu_75::numparse::impl::AffixPatternMatcherBuilder", ptr %this1, i32 0, i32 3
  %4 = load i32, ptr %fMatchersLen7, align 8
  %inc = add nsw i32 %4, 1
  store i32 %inc, ptr %fMatchersLen7, align 8
  %conv = sext i32 %4 to i64
  %call8 = call noundef nonnull align 8 dereferenceable(8) ptr @_ZN6icu_7515MaybeStackArrayIPKNS_8numparse4impl18NumberParseMatcherELi3EEixEl(ptr noundef nonnull align 8 dereferenceable(40) %fMatchers6, i64 noundef %conv)
  store ptr %3, ptr %call8, align 8
  ret void
}