; Function Attrs: mustprogress uwtable
define void @_ZN6icu_758numparse4impl26AffixPatternMatcherBuilder10addMatcherERNS1_18NumberParseMatcherE(ptr nocapture noundef nonnull align 8 dereferenceable(88) %this, ptr noundef nonnull align 8 dereferenceable(8) %matcher) unnamed_addr #1 align 2 {
entry:
  %fMatchersLen = getelementptr inbounds i8, ptr %this, i64 56
  %0 = load i32, ptr %fMatchersLen, align 8
  %fMatchers = getelementptr inbounds i8, ptr %this, i64 16
  %capacity.i = getelementptr inbounds i8, ptr %this, i64 24
  %1 = load i32, ptr %capacity.i, align 8
  %cmp.not = icmp slt i32 %0, %1
  br i1 %cmp.not, label %if.end, label %if.then

if.then:                                          ; preds = %entry
  %mul = shl nsw i32 %0, 1
  %cmp.i = icmp sgt i32 %0, 0
  br i1 %cmp.i, label %if.then.i, label %if.end

if.then.i:                                        ; preds = %if.then
  %conv.i = zext nneg i32 %mul to i64
  %mul.i = shl nuw nsw i64 %conv.i, 3
  %call.i = tail call noalias ptr @uprv_malloc_75(i64 noundef %mul.i) #17
  %cmp2.not.i = icmp eq ptr %call.i, null
  br i1 %cmp2.not.i, label %if.end, label %if.then5.i

if.then5.i:                                       ; preds = %if.then.i
  %2 = load i32, ptr %capacity.i, align 8
  %spec.select.i = tail call i32 @llvm.smin.i32(i32 %2, i32 %0)
  %length.addr.1.i = tail call i32 @llvm.smin.i32(i32 %spec.select.i, i32 %mul)
  %3 = load ptr, ptr %fMatchers, align 8
  %conv12.i = sext i32 %length.addr.1.i to i64
  %mul13.i = shl nsw i64 %conv12.i, 3
  tail call void @llvm.memcpy.p0.p0.i64(ptr nonnull align 8 %call.i, ptr align 8 %3, i64 %mul13.i, i1 false)
  %needToRelease.i.i = getelementptr inbounds i8, ptr %this, i64 28
  %4 = load i8, ptr %needToRelease.i.i, align 4
  %tobool.not.i.i = icmp eq i8 %4, 0
  br i1 %tobool.not.i.i, label %_ZN6icu_7515MaybeStackArrayIPKNS_8numparse4impl18NumberParseMatcherELi3EE12releaseArrayEv.exit.i, label %if.then.i.i

if.then.i.i:                                      ; preds = %if.then5.i
  tail call void @uprv_free_75(ptr noundef %3)
  br label %_ZN6icu_7515MaybeStackArrayIPKNS_8numparse4impl18NumberParseMatcherELi3EE12releaseArrayEv.exit.i

_ZN6icu_7515MaybeStackArrayIPKNS_8numparse4impl18NumberParseMatcherELi3EE12releaseArrayEv.exit.i: ; preds = %if.then.i.i, %if.then5.i
  store ptr %call.i, ptr %fMatchers, align 8
  store i32 %mul, ptr %capacity.i, align 8
  store i8 1, ptr %needToRelease.i.i, align 4
  br label %if.end

if.end:                                           ; preds = %_ZN6icu_7515MaybeStackArrayIPKNS_8numparse4impl18NumberParseMatcherELi3EE12releaseArrayEv.exit.i, %if.then.i, %if.then, %entry
  %5 = load i32, ptr %fMatchersLen, align 8
  %inc = add nsw i32 %5, 1
  store i32 %inc, ptr %fMatchersLen, align 8
  %conv = sext i32 %5 to i64
  %6 = load ptr, ptr %fMatchers, align 8
  %arrayidx.i = getelementptr inbounds ptr, ptr %6, i64 %conv
  store ptr %matcher, ptr %arrayidx.i, align 8
  ret void
}